; Function Attrs: mustprogress nounwind uwtable
define internal void @"_ZN4absl12lts_2024072222internal_any_invocable23RemoteManagerNontrivialIZZN17grpc_event_engine12experimental18ThreadyEventEngine18ThreadyDNSResolver14LookupHostnameENS0_12AnyInvocableIFvNS0_8StatusOrISt6vectorINS4_11EventEngine15ResolvedAddressESaISB_EEEEEEESt17basic_string_viewIcSt11char_traitsIcEESK_EN3$_0clESE_EUlvE_EEvNS1_14FunctionToCallEPNS1_15TypeErasedStateESP_"(i1 noundef zeroext %0, ptr noundef readonly captures(none) %1, ptr noundef writeonly captures(none) %2) #5 personality ptr @__gxx_personality_v0 {
  %4 = load ptr, ptr %1, align 16, !tbaa !50
  br i1 %0, label %6, label %5

5:                                                ; preds = %3
  store ptr %4, ptr %2, align 16, !tbaa !50
  br label %29

6:                                                ; preds = %3
  %7 = icmp eq ptr %4, null
  br i1 %7, label %29, label %8

8:                                                ; preds = %6
  %9 = getelementptr inbounds nuw i8, ptr %4, i64 32
  %10 = load i64, ptr %9, align 8, !tbaa !79
  %11 = icmp eq i64 %10, 1
  br i1 %11, label %_ZN4absl12lts_202407226StatusD2Ev.exit.i.i, label %20

_ZN4absl12lts_202407226StatusD2Ev.exit.i.i:       ; preds = %8
  %12 = getelementptr inbounds nuw i8, ptr %4, i64 40
  %13 = load ptr, ptr %12, align 8, !tbaa !133
  %.not.i.i.i.i.i = icmp eq ptr %13, null
  br i1 %.not.i.i.i.i.i, label %"_ZZZN17grpc_event_engine12experimental18ThreadyEventEngine18ThreadyDNSResolver14LookupHostnameEN4absl12lts_2024072212AnyInvocableIFvNS4_8StatusOrISt6vectorINS0_11EventEngine15ResolvedAddressESaIS9_EEEEEEESt17basic_string_viewIcSt11char_traitsIcEESI_EN3$_0clESC_ENUlvE_D2Ev.exit", label %14

14:                                               ; preds = %_ZN4absl12lts_202407226StatusD2Ev.exit.i.i
  %15 = getelementptr inbounds nuw i8, ptr %4, i64 56
  %16 = load ptr, ptr %15, align 8, !tbaa !137
  %17 = ptrtoint ptr %16 to i64
  %18 = ptrtoint ptr %13 to i64
  %19 = sub i64 %17, %18
  tail call void @_ZdlPvm(ptr noundef nonnull %13, i64 noundef %19) #31
  br label %"_ZZZN17grpc_event_engine12experimental18ThreadyEventEngine18ThreadyDNSResolver14LookupHostnameEN4absl12lts_2024072212AnyInvocableIFvNS4_8StatusOrISt6vectorINS0_11EventEngine15ResolvedAddressESaIS9_EEEEEEESt17basic_string_viewIcSt11char_traitsIcEESI_EN3$_0clESC_ENUlvE_D2Ev.exit"

20:                                               ; preds = %8
  %21 = and i64 %10, 1
  %.not.i.i1.i.i = icmp eq i64 %21, 0
  br i1 %.not.i.i1.i.i, label %22, label %"_ZZZN17grpc_event_engine12experimental18ThreadyEventEngine18ThreadyDNSResolver14LookupHostnameEN4absl12lts_2024072212AnyInvocableIFvNS4_8StatusOrISt6vectorINS0_11EventEngine15ResolvedAddressESaIS9_EEEEEEESt17basic_string_viewIcSt11char_traitsIcEESI_EN3$_0clESC_ENUlvE_D2Ev.exit"

22:                                               ; preds = %20
  %23 = inttoptr i64 %10 to ptr
  invoke void @_ZNK4absl12lts_2024072215status_internal9StatusRep5UnrefEv(ptr noundef nonnull align 8 dereferenceable(48) %23)
          to label %"_ZZZN17grpc_event_engine12experimental18ThreadyEventEngine18ThreadyDNSResolver14LookupHostnameEN4absl12lts_2024072212AnyInvocableIFvNS4_8StatusOrISt6vectorINS0_11EventEngine15ResolvedAddressESaIS9_EEEEEEESt17basic_string_viewIcSt11char_traitsIcEESI_EN3$_0clESC_ENUlvE_D2Ev.exit" unwind label %24

24:                                               ; preds = %22
  %25 = landingpad { ptr, i32 }
          catch ptr null
  %26 = extractvalue { ptr, i32 } %25, 0
  tail call void @__clang_call_terminate(ptr %26) #29
  unreachable

"_ZZZN17grpc_event_engine12experimental18ThreadyEventEngine18ThreadyDNSResolver14LookupHostnameEN4absl12lts_2024072212AnyInvocableIFvNS4_8StatusOrISt6vectorINS0_11EventEngine15ResolvedAddressESaIS9_EEEEEEESt17basic_string_viewIcSt11char_traitsIcEESI_EN3$_0clESC_ENUlvE_D2Ev.exit": ; preds = %_ZN4absl12lts_202407226StatusD2Ev.exit.i.i, %14, %20, %22
  %27 = getelementptr inbounds nuw i8, ptr %4, i64 16
  %28 = load ptr, ptr %27, align 16, !tbaa !109
  tail call void %28(i1 noundef zeroext true, ptr noundef nonnull align 16 dereferenceable(64) %4, ptr noundef nonnull align 16 dereferenceable(64) %4) #26
  tail call void @_ZdlPvm(ptr noundef nonnull %4, i64 noundef 64) #31
  br label %29

29:                                               ; preds = %6, %"_ZZZN17grpc_event_engine12experimental18ThreadyEventEngine18ThreadyDNSResolver14LookupHostnameEN4absl12lts_2024072212AnyInvocableIFvNS4_8StatusOrISt6vectorINS0_11EventEngine15ResolvedAddressESaIS9_EEEEEEESt17basic_string_viewIcSt11char_traitsIcEESI_EN3$_0clESC_ENUlvE_D2Ev.exit", %5
  ret void
}